target datalayout = "e-m:e-p270:32:32-p271:32:32-p272:64:64-i64:64-i128:128-f80:128-n8:16:32:64-S128"
target triple = "x86_64-pc-linux-gnu"

%struct.H5SM_master_table_t = type { %struct.H5C_cache_entry_t, i64, i32, ptr }
%struct.H5C_cache_entry_t = type { ptr, i64, i64, ptr, i8, ptr, i8, i8, i8, i8, i32, i8, i8, i8, i8, i8, i32, ptr, i32, i32, i32, i32, i32, i8, i8, ptr, ptr, ptr, ptr, ptr, ptr, i8, i32, i8, i64, ptr, i64, i64, i32, i8, i32, i32, i8, ptr, ptr, ptr }
%struct.H5SM_index_header_t = type { i32, i64, i64, i64, i64, i32, i64, i64, i64 }

@H5SM_init_g = external global i8, align 1
@H5_libterm_g = external global i8, align 1
@.str.5 = private unnamed_addr constant [5 x i8] c"SMTB\00", align 1

; Function Attrs: nounwind uwtable
define internal i32 @H5SM__cache_table_serialize(ptr noundef %0, ptr noundef %1, i64 noundef %2, ptr noundef %3) #0 {
  %5 = alloca ptr, align 8
  %6 = alloca ptr, align 8
  %7 = alloca i64, align 8
  %8 = alloca ptr, align 8
  %9 = alloca ptr, align 8
  %10 = alloca ptr, align 8
  %11 = alloca i32, align 4
  %12 = alloca i64, align 8
  store ptr %0, ptr %5, align 8, !tbaa !28
  store ptr %1, ptr %6, align 8, !tbaa !3
  store i64 %2, ptr %7, align 8, !tbaa !18
  store ptr %3, ptr %8, align 8, !tbaa !3
  call void @llvm.lifetime.start.p0(i64 8, ptr %9) #7
  %13 = load ptr, ptr %8, align 8, !tbaa !3
  store ptr %13, ptr %9, align 8, !tbaa !26
  call void @llvm.lifetime.start.p0(i64 8, ptr %10) #7
  %14 = load ptr, ptr %6, align 8, !tbaa !3
  store ptr %14, ptr %10, align 8, !tbaa !20
  call void @llvm.lifetime.start.p0(i64 4, ptr %11) #7
  call void @llvm.lifetime.start.p0(i64 8, ptr %12) #7
  %15 = load i8, ptr @H5SM_init_g, align 1, !tbaa !11, !range !13, !noundef !14
  %16 = trunc i8 %15 to i1
  br i1 %16, label %21, label %17

17:                                               ; preds = %4
  %18 = load i8, ptr @H5_libterm_g, align 1, !tbaa !11, !range !13, !noundef !14
  %19 = trunc i8 %18 to i1
  %20 = xor i1 %19, true
  br label %21

21:                                               ; preds = %17, %4
  %22 = phi i1 [ true, %4 ], [ %20, %17 ]
  %23 = xor i1 %22, true
  %24 = xor i1 %23, true
  %25 = zext i1 %24 to i32
  %26 = sext i32 %25 to i64
  %27 = call i64 @llvm.expect.i64(i64 %26, i64 1)
  %28 = icmp ne i64 %27, 0
  br i1 %28, label %29, label %281

29:                                               ; preds = %21
  %30 = load ptr, ptr %10, align 8, !tbaa !20
  call void @llvm.memcpy.p0.p0.i64(ptr align 1 %30, ptr align 1 @.str.5, i64 4, i1 false)
  %31 = load ptr, ptr %10, align 8, !tbaa !20
  %32 = getelementptr inbounds i8, ptr %31, i64 4
  store ptr %32, ptr %10, align 8, !tbaa !20
  store i64 0, ptr %12, align 8, !tbaa !18
  br label %33

33:                                               ; preds = %241, %29
  %34 = load i64, ptr %12, align 8, !tbaa !18
  %35 = load ptr, ptr %9, align 8, !tbaa !26
  %36 = getelementptr inbounds nuw %struct.H5SM_master_table_t, ptr %35, i32 0, i32 2
  %37 = load i32, ptr %36, align 8, !tbaa !29
  %38 = zext i32 %37 to i64
  %39 = icmp ult i64 %34, %38
  br i1 %39, label %40, label %244

40:                                               ; preds = %33
  %41 = load ptr, ptr %10, align 8, !tbaa !20
  %42 = getelementptr inbounds nuw i8, ptr %41, i32 1
  store ptr %42, ptr %10, align 8, !tbaa !20
  store i8 0, ptr %41, align 1, !tbaa !39
  %43 = load ptr, ptr %9, align 8, !tbaa !26
  %44 = getelementptr inbounds nuw %struct.H5SM_master_table_t, ptr %43, i32 0, i32 3
  %45 = load ptr, ptr %44, align 8, !tbaa !38
  %46 = load i64, ptr %12, align 8, !tbaa !18
  %47 = getelementptr inbounds nuw %struct.H5SM_index_header_t, ptr %45, i64 %46
  %48 = getelementptr inbounds nuw %struct.H5SM_index_header_t, ptr %47, i32 0, i32 5
  %49 = load i32, ptr %48, align 8, !tbaa !40
  %50 = trunc i32 %49 to i8
  %51 = load ptr, ptr %10, align 8, !tbaa !20
  %52 = getelementptr inbounds nuw i8, ptr %51, i32 1
  store ptr %52, ptr %10, align 8, !tbaa !20
  store i8 %50, ptr %51, align 1, !tbaa !39
  br label %53

53:                                               ; preds = %40
  %54 = load ptr, ptr %9, align 8, !tbaa !26
  %55 = getelementptr inbounds nuw %struct.H5SM_master_table_t, ptr %54, i32 0, i32 3
  %56 = load ptr, ptr %55, align 8, !tbaa !38
  %57 = load i64, ptr %12, align 8, !tbaa !18
  %58 = getelementptr inbounds nuw %struct.H5SM_index_header_t, ptr %56, i64 %57
  %59 = getelementptr inbounds nuw %struct.H5SM_index_header_t, ptr %58, i32 0, i32 0
  %60 = load i32, ptr %59, align 8, !tbaa !42
  %61 = and i32 %60, 255
  %62 = trunc i32 %61 to i8
  %63 = load ptr, ptr %10, align 8, !tbaa !20
  store i8 %62, ptr %63, align 1, !tbaa !39
  %64 = load ptr, ptr %10, align 8, !tbaa !20
  %65 = getelementptr inbounds nuw i8, ptr %64, i32 1
  store ptr %65, ptr %10, align 8, !tbaa !20
  %66 = load ptr, ptr %9, align 8, !tbaa !26
  %67 = getelementptr inbounds nuw %struct.H5SM_master_table_t, ptr %66, i32 0, i32 3
  %68 = load ptr, ptr %67, align 8, !tbaa !38
  %69 = load i64, ptr %12, align 8, !tbaa !18
  %70 = getelementptr inbounds nuw %struct.H5SM_index_header_t, ptr %68, i64 %69
  %71 = getelementptr inbounds nuw %struct.H5SM_index_header_t, ptr %70, i32 0, i32 0
  %72 = load i32, ptr %71, align 8, !tbaa !42
  %73 = lshr i32 %72, 8
  %74 = and i32 %73, 255
  %75 = trunc i32 %74 to i8
  %76 = load ptr, ptr %10, align 8, !tbaa !20
  store i8 %75, ptr %76, align 1, !tbaa !39
  %77 = load ptr, ptr %10, align 8, !tbaa !20
  %78 = getelementptr inbounds nuw i8, ptr %77, i32 1
  store ptr %78, ptr %10, align 8, !tbaa !20
  br label %79

79:                                               ; preds = %53
  br label %80

80:                                               ; preds = %79
  br label %81

81:                                               ; preds = %80
  %82 = load ptr, ptr %9, align 8, !tbaa !26
  %83 = getelementptr inbounds nuw %struct.H5SM_master_table_t, ptr %82, i32 0, i32 3
  %84 = load ptr, ptr %83, align 8, !tbaa !38
  %85 = load i64, ptr %12, align 8, !tbaa !18
  %86 = getelementptr inbounds nuw %struct.H5SM_index_header_t, ptr %84, i64 %85
  %87 = getelementptr inbounds nuw %struct.H5SM_index_header_t, ptr %86, i32 0, i32 1
  %88 = load i64, ptr %87, align 8, !tbaa !43
  %89 = and i64 %88, 255
  %90 = trunc i64 %89 to i8
  %91 = load ptr, ptr %10, align 8, !tbaa !20
  store i8 %90, ptr %91, align 1, !tbaa !39
  %92 = load ptr, ptr %10, align 8, !tbaa !20
  %93 = getelementptr inbounds nuw i8, ptr %92, i32 1
  store ptr %93, ptr %10, align 8, !tbaa !20
  %94 = load ptr, ptr %9, align 8, !tbaa !26
  %95 = getelementptr inbounds nuw %struct.H5SM_master_table_t, ptr %94, i32 0, i32 3
  %96 = load ptr, ptr %95, align 8, !tbaa !38
  %97 = load i64, ptr %12, align 8, !tbaa !18
  %98 = getelementptr inbounds nuw %struct.H5SM_index_header_t, ptr %96, i64 %97
  %99 = getelementptr inbounds nuw %struct.H5SM_index_header_t, ptr %98, i32 0, i32 1
  %100 = load i64, ptr %99, align 8, !tbaa !43
  %101 = lshr i64 %100, 8
  %102 = and i64 %101, 255
  %103 = trunc i64 %102 to i8
  %104 = load ptr, ptr %10, align 8, !tbaa !20
  store i8 %103, ptr %104, align 1, !tbaa !39
  %105 = load ptr, ptr %10, align 8, !tbaa !20
  %106 = getelementptr inbounds nuw i8, ptr %105, i32 1
  store ptr %106, ptr %10, align 8, !tbaa !20
  %107 = load ptr, ptr %9, align 8, !tbaa !26
  %108 = getelementptr inbounds nuw %struct.H5SM_master_table_t, ptr %107, i32 0, i32 3
  %109 = load ptr, ptr %108, align 8, !tbaa !38
  %110 = load i64, ptr %12, align 8, !tbaa !18
  %111 = getelementptr inbounds nuw %struct.H5SM_index_header_t, ptr %109, i64 %110
  %112 = getelementptr inbounds nuw %struct.H5SM_index_header_t, ptr %111, i32 0, i32 1
  %113 = load i64, ptr %112, align 8, !tbaa !43
  %114 = lshr i64 %113, 16
  %115 = and i64 %114, 255
  %116 = trunc i64 %115 to i8
  %117 = load ptr, ptr %10, align 8, !tbaa !20
  store i8 %116, ptr %117, align 1, !tbaa !39
  %118 = load ptr, ptr %10, align 8, !tbaa !20
  %119 = getelementptr inbounds nuw i8, ptr %118, i32 1
  store ptr %119, ptr %10, align 8, !tbaa !20
  %120 = load ptr, ptr %9, align 8, !tbaa !26
  %121 = getelementptr inbounds nuw %struct.H5SM_master_table_t, ptr %120, i32 0, i32 3
  %122 = load ptr, ptr %121, align 8, !tbaa !38
  %123 = load i64, ptr %12, align 8, !tbaa !18
  %124 = getelementptr inbounds nuw %struct.H5SM_index_header_t, ptr %122, i64 %123
  %125 = getelementptr inbounds nuw %struct.H5SM_index_header_t, ptr %124, i32 0, i32 1
  %126 = load i64, ptr %125, align 8, !tbaa !43
  %127 = lshr i64 %126, 24
  %128 = and i64 %127, 255
  %129 = trunc i64 %128 to i8
  %130 = load ptr, ptr %10, align 8, !tbaa !20
  store i8 %129, ptr %130, align 1, !tbaa !39
  %131 = load ptr, ptr %10, align 8, !tbaa !20
  %132 = getelementptr inbounds nuw i8, ptr %131, i32 1
  store ptr %132, ptr %10, align 8, !tbaa !20
  br label %133

133:                                              ; preds = %81
  br label %134

134:                                              ; preds = %133
  br label %135

135:                                              ; preds = %134
  %136 = load ptr, ptr %9, align 8, !tbaa !26
  %137 = getelementptr inbounds nuw %struct.H5SM_master_table_t, ptr %136, i32 0, i32 3
  %138 = load ptr, ptr %137, align 8, !tbaa !38
  %139 = load i64, ptr %12, align 8, !tbaa !18
  %140 = getelementptr inbounds nuw %struct.H5SM_index_header_t, ptr %138, i64 %139
  %141 = getelementptr inbounds nuw %struct.H5SM_index_header_t, ptr %140, i32 0, i32 2
  %142 = load i64, ptr %141, align 8, !tbaa !44
  %143 = trunc i64 %142 to i32
  %144 = and i32 %143, 255
  %145 = trunc i32 %144 to i8
  %146 = load ptr, ptr %10, align 8, !tbaa !20
  store i8 %145, ptr %146, align 1, !tbaa !39
  %147 = load ptr, ptr %10, align 8, !tbaa !20
  %148 = getelementptr inbounds nuw i8, ptr %147, i32 1
  store ptr %148, ptr %10, align 8, !tbaa !20
  %149 = load ptr, ptr %9, align 8, !tbaa !26
  %150 = getelementptr inbounds nuw %struct.H5SM_master_table_t, ptr %149, i32 0, i32 3
  %151 = load ptr, ptr %150, align 8, !tbaa !38
  %152 = load i64, ptr %12, align 8, !tbaa !18
  %153 = getelementptr inbounds nuw %struct.H5SM_index_header_t, ptr %151, i64 %152
  %154 = getelementptr inbounds nuw %struct.H5SM_index_header_t, ptr %153, i32 0, i32 2
  %155 = load i64, ptr %154, align 8, !tbaa !44
  %156 = trunc i64 %155 to i32
  %157 = lshr i32 %156, 8
  %158 = and i32 %157, 255
  %159 = trunc i32 %158 to i8
  %160 = load ptr, ptr %10, align 8, !tbaa !20
  store i8 %159, ptr %160, align 1, !tbaa !39
  %161 = load ptr, ptr %10, align 8, !tbaa !20
  %162 = getelementptr inbounds nuw i8, ptr %161, i32 1
  store ptr %162, ptr %10, align 8, !tbaa !20
  br label %163

163:                                              ; preds = %135
  br label %164

164:                                              ; preds = %163
  br label %165

165:                                              ; preds = %164
  %166 = load ptr, ptr %9, align 8, !tbaa !26
  %167 = getelementptr inbounds nuw %struct.H5SM_master_table_t, ptr %166, i32 0, i32 3
  %168 = load ptr, ptr %167, align 8, !tbaa !38
  %169 = load i64, ptr %12, align 8, !tbaa !18
  %170 = getelementptr inbounds nuw %struct.H5SM_index_header_t, ptr %168, i64 %169
  %171 = getelementptr inbounds nuw %struct.H5SM_index_header_t, ptr %170, i32 0, i32 3
  %172 = load i64, ptr %171, align 8, !tbaa !45
  %173 = trunc i64 %172 to i32
  %174 = and i32 %173, 255
  %175 = trunc i32 %174 to i8
  %176 = load ptr, ptr %10, align 8, !tbaa !20
  store i8 %175, ptr %176, align 1, !tbaa !39
  %177 = load ptr, ptr %10, align 8, !tbaa !20
  %178 = getelementptr inbounds nuw i8, ptr %177, i32 1
  store ptr %178, ptr %10, align 8, !tbaa !20
  %179 = load ptr, ptr %9, align 8, !tbaa !26
  %180 = getelementptr inbounds nuw %struct.H5SM_master_table_t, ptr %179, i32 0, i32 3
  %181 = load ptr, ptr %180, align 8, !tbaa !38
  %182 = load i64, ptr %12, align 8, !tbaa !18
  %183 = getelementptr inbounds nuw %struct.H5SM_index_header_t, ptr %181, i64 %182
  %184 = getelementptr inbounds nuw %struct.H5SM_index_header_t, ptr %183, i32 0, i32 3
  %185 = load i64, ptr %184, align 8, !tbaa !45
  %186 = trunc i64 %185 to i32
  %187 = lshr i32 %186, 8
  %188 = and i32 %187, 255
  %189 = trunc i32 %188 to i8
  %190 = load ptr, ptr %10, align 8, !tbaa !20
  store i8 %189, ptr %190, align 1, !tbaa !39
  %191 = load ptr, ptr %10, align 8, !tbaa !20
  %192 = getelementptr inbounds nuw i8, ptr %191, i32 1
  store ptr %192, ptr %10, align 8, !tbaa !20
  br label %193

193:                                              ; preds = %165
  br label %194

194:                                              ; preds = %193
  br label %195

195:                                              ; preds = %194
  %196 = load ptr, ptr %9, align 8, !tbaa !26
  %197 = getelementptr inbounds nuw %struct.H5SM_master_table_t, ptr %196, i32 0, i32 3
  %198 = load ptr, ptr %197, align 8, !tbaa !38
  %199 = load i64, ptr %12, align 8, !tbaa !18
  %200 = getelementptr inbounds nuw %struct.H5SM_index_header_t, ptr %198, i64 %199
  %201 = getelementptr inbounds nuw %struct.H5SM_index_header_t, ptr %200, i32 0, i32 4
  %202 = load i64, ptr %201, align 8, !tbaa !46
  %203 = trunc i64 %202 to i32
  %204 = and i32 %203, 255
  %205 = trunc i32 %204 to i8
  %206 = load ptr, ptr %10, align 8, !tbaa !20
  store i8 %205, ptr %206, align 1, !tbaa !39
  %207 = load ptr, ptr %10, align 8, !tbaa !20
  %208 = getelementptr inbounds nuw i8, ptr %207, i32 1
  store ptr %208, ptr %10, align 8, !tbaa !20
  %209 = load ptr, ptr %9, align 8, !tbaa !26
  %210 = getelementptr inbounds nuw %struct.H5SM_master_table_t, ptr %209, i32 0, i32 3
  %211 = load ptr, ptr %210, align 8, !tbaa !38
  %212 = load i64, ptr %12, align 8, !tbaa !18
  %213 = getelementptr inbounds nuw %struct.H5SM_index_header_t, ptr %211, i64 %212
  %214 = getelementptr inbounds nuw %struct.H5SM_index_header_t, ptr %213, i32 0, i32 4
  %215 = load i64, ptr %214, align 8, !tbaa !46
  %216 = trunc i64 %215 to i32
  %217 = lshr i32 %216, 8
  %218 = and i32 %217, 255
  %219 = trunc i32 %218 to i8
  %220 = load ptr, ptr %10, align 8, !tbaa !20
  store i8 %219, ptr %220, align 1, !tbaa !39
  %221 = load ptr, ptr %10, align 8, !tbaa !20
  %222 = getelementptr inbounds nuw i8, ptr %221, i32 1
  store ptr %222, ptr %10, align 8, !tbaa !20
  br label %223

223:                                              ; preds = %195
  br label %224

224:                                              ; preds = %223
  %225 = load ptr, ptr %5, align 8, !tbaa !28
  %226 = load ptr, ptr %9, align 8, !tbaa !26
  %227 = getelementptr inbounds nuw %struct.H5SM_master_table_t, ptr %226, i32 0, i32 3
  %228 = load ptr, ptr %227, align 8, !tbaa !38
  %229 = load i64, ptr %12, align 8, !tbaa !18
  %230 = getelementptr inbounds nuw %struct.H5SM_index_header_t, ptr %228, i64 %229
  %231 = getelementptr inbounds nuw %struct.H5SM_index_header_t, ptr %230, i32 0, i32 6
  %232 = load i64, ptr %231, align 8, !tbaa !50
  call void @H5F_addr_encode(ptr noundef %225, ptr noundef %10, i64 noundef %232)
  %233 = load ptr, ptr %5, align 8, !tbaa !28
  %234 = load ptr, ptr %9, align 8, !tbaa !26
  %235 = getelementptr inbounds nuw %struct.H5SM_master_table_t, ptr %234, i32 0, i32 3
  %236 = load ptr, ptr %235, align 8, !tbaa !38
  %237 = load i64, ptr %12, align 8, !tbaa !18
  %238 = getelementptr inbounds nuw %struct.H5SM_index_header_t, ptr %236, i64 %237
  %239 = getelementptr inbounds nuw %struct.H5SM_index_header_t, ptr %238, i32 0, i32 7
  %240 = load i64, ptr %239, align 8, !tbaa !51
  call void @H5F_addr_encode(ptr noundef %233, ptr noundef %10, i64 noundef %240)
  br label %241

241:                                              ; preds = %224
  %242 = load i64, ptr %12, align 8, !tbaa !18
  %243 = add i64 %242, 1
  store i64 %243, ptr %12, align 8, !tbaa !18
  br label %33, !llvm.loop !52

244:                                              ; preds = %33
  %245 = load ptr, ptr %6, align 8, !tbaa !3
  %246 = load ptr, ptr %9, align 8, !tbaa !26
  %247 = getelementptr inbounds nuw %struct.H5SM_master_table_t, ptr %246, i32 0, i32 1
  %248 = load i64, ptr %247, align 8, !tbaa !37
  %249 = sub i64 %248, 4
  %250 = call i32 @H5_checksum_metadata(ptr noundef %245, i64 noundef %249, i32 noundef 0)
  store i32 %250, ptr %11, align 4, !tbaa !22
  br label %251

251:                                              ; preds = %244
  %252 = load i32, ptr %11, align 4, !tbaa !22
  %253 = and i32 %252, 255
  %254 = trunc i32 %253 to i8
  %255 = load ptr, ptr %10, align 8, !tbaa !20
  store i8 %254, ptr %255, align 1, !tbaa !39
  %256 = load ptr, ptr %10, align 8, !tbaa !20
  %257 = getelementptr inbounds nuw i8, ptr %256, i32 1
  store ptr %257, ptr %10, align 8, !tbaa !20
  %258 = load i32, ptr %11, align 4, !tbaa !22
  %259 = lshr i32 %258, 8
  %260 = and i32 %259, 255
  %261 = trunc i32 %260 to i8
  %262 = load ptr, ptr %10, align 8, !tbaa !20
  store i8 %261, ptr %262, align 1, !tbaa !39
  %263 = load ptr, ptr %10, align 8, !tbaa !20
  %264 = getelementptr inbounds nuw i8, ptr %263, i32 1
  store ptr %264, ptr %10, align 8, !tbaa !20
  %265 = load i32, ptr %11, align 4, !tbaa !22
  %266 = lshr i32 %265, 16
  %267 = and i32 %266, 255
  %268 = trunc i32 %267 to i8
  %269 = load ptr, ptr %10, align 8, !tbaa !20
  store i8 %268, ptr %269, align 1, !tbaa !39
  %270 = load ptr, ptr %10, align 8, !tbaa !20
  %271 = getelementptr inbounds nuw i8, ptr %270, i32 1
  store ptr %271, ptr %10, align 8, !tbaa !20
  %272 = load i32, ptr %11, align 4, !tbaa !22
  %273 = lshr i32 %272, 24
  %274 = and i32 %273, 255
  %275 = trunc i32 %274 to i8
  %276 = load ptr, ptr %10, align 8, !tbaa !20
  store i8 %275, ptr %276, align 1, !tbaa !39
  %277 = load ptr, ptr %10, align 8, !tbaa !20
  %278 = getelementptr inbounds nuw i8, ptr %277, i32 1
  store ptr %278, ptr %10, align 8, !tbaa !20
  br label %279

279:                                              ; preds = %251
  br label %280

280:                                              ; preds = %279
  br label %281

281:                                              ; preds = %280, %21
  call void @llvm.lifetime.end.p0(i64 8, ptr %12) #7
  call void @llvm.lifetime.end.p0(i64 4, ptr %11) #7
  call void @llvm.lifetime.end.p0(i64 8, ptr %10) #7
  call void @llvm.lifetime.end.p0(i64 8, ptr %9) #7
  ret i32 0
}