; Function Attrs: nounwind uwtable
define internal noundef i32 @H5SM__cache_table_serialize(ptr noundef %0, ptr noundef %1, i64 %2, ptr noundef readonly captures(none) %3) #0 {
  %5 = alloca ptr, align 8
  call void @llvm.lifetime.start.p0(i64 8, ptr nonnull %5) #6
  %6 = load i8, ptr @H5SM_init_g, align 1, !tbaa !3, !range !7, !noundef !8
  %7 = trunc nuw i8 %6 to i1
  %8 = load i8, ptr @H5_libterm_g, align 1, !range !7
  %9 = trunc nuw i8 %8 to i1
  %10 = xor i1 %9, true
  %11 = select i1 %7, i1 true, i1 %10
  br i1 %11, label %12, label %134, !prof !9

12:                                               ; preds = %4
  store i32 1112821075, ptr %1, align 1
  %13 = getelementptr inbounds nuw i8, ptr %1, i64 4
  store ptr %13, ptr %5, align 8, !tbaa !18
  %14 = getelementptr inbounds nuw i8, ptr %3, i64 256
  %15 = load i32, ptr %14, align 8, !tbaa !20
  %.not = icmp eq i32 %15, 0
  br i1 %.not, label %._crit_edge, label %.lr.ph

.lr.ph:                                           ; preds = %12
  %16 = getelementptr inbounds nuw i8, ptr %3, i64 264
  br label %17

17:                                               ; preds = %.lr.ph, %17
  %.042 = phi i64 [ 0, %.lr.ph ], [ %112, %17 ]
  %18 = load ptr, ptr %5, align 8, !tbaa !18
  %19 = getelementptr inbounds nuw i8, ptr %18, i64 1
  store ptr %19, ptr %5, align 8, !tbaa !18
  store i8 0, ptr %18, align 1, !tbaa !31
  %20 = load ptr, ptr %16, align 8, !tbaa !30
  %21 = getelementptr inbounds nuw %struct.H5SM_index_header_t, ptr %20, i64 %.042, i32 5
  %22 = load i32, ptr %21, align 8, !tbaa !32
  %23 = trunc i32 %22 to i8
  %24 = load ptr, ptr %5, align 8, !tbaa !18
  %25 = getelementptr inbounds nuw i8, ptr %24, i64 1
  store ptr %25, ptr %5, align 8, !tbaa !18
  store i8 %23, ptr %24, align 1, !tbaa !31
  %26 = load ptr, ptr %16, align 8, !tbaa !30
  %27 = getelementptr inbounds nuw %struct.H5SM_index_header_t, ptr %26, i64 %.042
  %28 = load i32, ptr %27, align 8, !tbaa !34
  %29 = trunc i32 %28 to i8
  %30 = load ptr, ptr %5, align 8, !tbaa !18
  store i8 %29, ptr %30, align 1, !tbaa !31
  %31 = load ptr, ptr %5, align 8, !tbaa !18
  %32 = getelementptr inbounds nuw i8, ptr %31, i64 1
  store ptr %32, ptr %5, align 8, !tbaa !18
  %33 = load ptr, ptr %16, align 8, !tbaa !30
  %34 = getelementptr inbounds nuw %struct.H5SM_index_header_t, ptr %33, i64 %.042
  %35 = load i32, ptr %34, align 8, !tbaa !34
  %36 = lshr i32 %35, 8
  %37 = trunc i32 %36 to i8
  store i8 %37, ptr %32, align 1, !tbaa !31
  %38 = load ptr, ptr %5, align 8, !tbaa !18
  %39 = getelementptr inbounds nuw i8, ptr %38, i64 1
  store ptr %39, ptr %5, align 8, !tbaa !18
  %40 = load ptr, ptr %16, align 8, !tbaa !30
  %41 = getelementptr inbounds nuw %struct.H5SM_index_header_t, ptr %40, i64 %.042, i32 1
  %42 = load i64, ptr %41, align 8, !tbaa !35
  %43 = trunc i64 %42 to i8
  store i8 %43, ptr %39, align 1, !tbaa !31
  %44 = load ptr, ptr %5, align 8, !tbaa !18
  %45 = getelementptr inbounds nuw i8, ptr %44, i64 1
  store ptr %45, ptr %5, align 8, !tbaa !18
  %46 = load ptr, ptr %16, align 8, !tbaa !30
  %47 = getelementptr inbounds nuw %struct.H5SM_index_header_t, ptr %46, i64 %.042, i32 1
  %48 = load i64, ptr %47, align 8, !tbaa !35
  %49 = lshr i64 %48, 8
  %50 = trunc i64 %49 to i8
  store i8 %50, ptr %45, align 1, !tbaa !31
  %51 = load ptr, ptr %5, align 8, !tbaa !18
  %52 = getelementptr inbounds nuw i8, ptr %51, i64 1
  store ptr %52, ptr %5, align 8, !tbaa !18
  %53 = load ptr, ptr %16, align 8, !tbaa !30
  %54 = getelementptr inbounds nuw %struct.H5SM_index_header_t, ptr %53, i64 %.042, i32 1
  %55 = load i64, ptr %54, align 8, !tbaa !35
  %56 = lshr i64 %55, 16
  %57 = trunc i64 %56 to i8
  store i8 %57, ptr %52, align 1, !tbaa !31
  %58 = load ptr, ptr %5, align 8, !tbaa !18
  %59 = getelementptr inbounds nuw i8, ptr %58, i64 1
  store ptr %59, ptr %5, align 8, !tbaa !18
  %60 = load ptr, ptr %16, align 8, !tbaa !30
  %61 = getelementptr inbounds nuw %struct.H5SM_index_header_t, ptr %60, i64 %.042, i32 1
  %62 = load i64, ptr %61, align 8, !tbaa !35
  %63 = lshr i64 %62, 24
  %64 = trunc i64 %63 to i8
  store i8 %64, ptr %59, align 1, !tbaa !31
  %65 = load ptr, ptr %5, align 8, !tbaa !18
  %66 = getelementptr inbounds nuw i8, ptr %65, i64 1
  store ptr %66, ptr %5, align 8, !tbaa !18
  %67 = load ptr, ptr %16, align 8, !tbaa !30
  %68 = getelementptr inbounds nuw %struct.H5SM_index_header_t, ptr %67, i64 %.042, i32 2
  %69 = load i64, ptr %68, align 8, !tbaa !36
  %70 = trunc i64 %69 to i8
  store i8 %70, ptr %66, align 1, !tbaa !31
  %71 = load ptr, ptr %5, align 8, !tbaa !18
  %72 = getelementptr inbounds nuw i8, ptr %71, i64 1
  store ptr %72, ptr %5, align 8, !tbaa !18
  %73 = load ptr, ptr %16, align 8, !tbaa !30
  %74 = getelementptr inbounds nuw %struct.H5SM_index_header_t, ptr %73, i64 %.042, i32 2
  %75 = load i64, ptr %74, align 8, !tbaa !36
  %76 = lshr i64 %75, 8
  %77 = trunc i64 %76 to i8
  store i8 %77, ptr %72, align 1, !tbaa !31
  %78 = load ptr, ptr %5, align 8, !tbaa !18
  %79 = getelementptr inbounds nuw i8, ptr %78, i64 1
  store ptr %79, ptr %5, align 8, !tbaa !18
  %80 = load ptr, ptr %16, align 8, !tbaa !30
  %81 = getelementptr inbounds nuw %struct.H5SM_index_header_t, ptr %80, i64 %.042, i32 3
  %82 = load i64, ptr %81, align 8, !tbaa !37
  %83 = trunc i64 %82 to i8
  store i8 %83, ptr %79, align 1, !tbaa !31
  %84 = load ptr, ptr %5, align 8, !tbaa !18
  %85 = getelementptr inbounds nuw i8, ptr %84, i64 1
  store ptr %85, ptr %5, align 8, !tbaa !18
  %86 = load ptr, ptr %16, align 8, !tbaa !30
  %87 = getelementptr inbounds nuw %struct.H5SM_index_header_t, ptr %86, i64 %.042, i32 3
  %88 = load i64, ptr %87, align 8, !tbaa !37
  %89 = lshr i64 %88, 8
  %90 = trunc i64 %89 to i8
  store i8 %90, ptr %85, align 1, !tbaa !31
  %91 = load ptr, ptr %5, align 8, !tbaa !18
  %92 = getelementptr inbounds nuw i8, ptr %91, i64 1
  store ptr %92, ptr %5, align 8, !tbaa !18
  %93 = load ptr, ptr %16, align 8, !tbaa !30
  %94 = getelementptr inbounds nuw %struct.H5SM_index_header_t, ptr %93, i64 %.042, i32 4
  %95 = load i64, ptr %94, align 8, !tbaa !38
  %96 = trunc i64 %95 to i8
  store i8 %96, ptr %92, align 1, !tbaa !31
  %97 = load ptr, ptr %5, align 8, !tbaa !18
  %98 = getelementptr inbounds nuw i8, ptr %97, i64 1
  store ptr %98, ptr %5, align 8, !tbaa !18
  %99 = load ptr, ptr %16, align 8, !tbaa !30
  %100 = getelementptr inbounds nuw %struct.H5SM_index_header_t, ptr %99, i64 %.042, i32 4
  %101 = load i64, ptr %100, align 8, !tbaa !38
  %102 = lshr i64 %101, 8
  %103 = trunc i64 %102 to i8
  store i8 %103, ptr %98, align 1, !tbaa !31
  %104 = load ptr, ptr %5, align 8, !tbaa !18
  %105 = getelementptr inbounds nuw i8, ptr %104, i64 1
  store ptr %105, ptr %5, align 8, !tbaa !18
  %106 = load ptr, ptr %16, align 8, !tbaa !30
  %107 = getelementptr inbounds nuw %struct.H5SM_index_header_t, ptr %106, i64 %.042, i32 6
  %108 = load i64, ptr %107, align 8, !tbaa !42
  call void @H5F_addr_encode(ptr noundef %0, ptr noundef nonnull %5, i64 noundef %108) #6
  %109 = load ptr, ptr %16, align 8, !tbaa !30
  %110 = getelementptr inbounds nuw %struct.H5SM_index_header_t, ptr %109, i64 %.042, i32 7
  %111 = load i64, ptr %110, align 8, !tbaa !43
  call void @H5F_addr_encode(ptr noundef %0, ptr noundef nonnull %5, i64 noundef %111) #6
  %112 = add nuw nsw i64 %.042, 1
  %113 = load i32, ptr %14, align 8, !tbaa !20
  %114 = zext i32 %113 to i64
  %115 = icmp samesign ult i64 %112, %114
  br i1 %115, label %17, label %._crit_edge, !llvm.loop !44

._crit_edge:                                      ; preds = %17, %12
  %116 = getelementptr inbounds nuw i8, ptr %3, i64 248
  %117 = load i64, ptr %116, align 8, !tbaa !29
  %118 = add i64 %117, -4
  %119 = call i32 @H5_checksum_metadata(ptr noundef nonnull %1, i64 noundef %118, i32 noundef 0) #6
  %120 = trunc i32 %119 to i8
  %121 = load ptr, ptr %5, align 8, !tbaa !18
  store i8 %120, ptr %121, align 1, !tbaa !31
  %122 = load ptr, ptr %5, align 8, !tbaa !18
  %123 = getelementptr inbounds nuw i8, ptr %122, i64 1
  store ptr %123, ptr %5, align 8, !tbaa !18
  %124 = lshr i32 %119, 8
  %125 = trunc i32 %124 to i8
  store i8 %125, ptr %123, align 1, !tbaa !31
  %126 = load ptr, ptr %5, align 8, !tbaa !18
  %127 = getelementptr inbounds nuw i8, ptr %126, i64 1
  store ptr %127, ptr %5, align 8, !tbaa !18
  %128 = lshr i32 %119, 16
  %129 = trunc i32 %128 to i8
  store i8 %129, ptr %127, align 1, !tbaa !31
  %130 = load ptr, ptr %5, align 8, !tbaa !18
  %131 = getelementptr inbounds nuw i8, ptr %130, i64 1
  %132 = lshr i32 %119, 24
  %133 = trunc nuw i32 %132 to i8
  store i8 %133, ptr %131, align 1, !tbaa !31
  br label %134

134:                                              ; preds = %._crit_edge, %4
  call void @llvm.lifetime.end.p0(i64 8, ptr nonnull %5) #6
  ret i32 0
}